target datalayout = "e-m:e-p270:32:32-p271:32:32-p272:64:64-i64:64-i128:128-f80:128-n8:16:32:64-S128"
target triple = "x86_64-pc-linux-gnu"

%"struct.std::_Rb_tree_header" = type { %"struct.std::_Rb_tree_node_base", i64 }
%"struct.std::_Rb_tree_node_base" = type { i32, ptr, ptr, ptr }
%class.QObject = type { ptr, %class.QScopedPointer }
%class.QScopedPointer = type { ptr }
%class.ShaderDialog = type { %class.QDockWidget, ptr, i8, ptr, ptr, ptr, ptr, ptr, %"class.std::map.16", %"class.std::map.24", %"class.std::vector.29", %"class.std::map.34", %"class.Ui::ShaderDialogClass" }
%class.QDockWidget = type { %class.QWidget }
%class.QWidget = type { %class.QObject, %class.QPaintDevice, ptr }
%class.QPaintDevice = type { ptr, i16, ptr }
%"class.std::map.16" = type { %"class.std::_Rb_tree.17" }
%"class.std::_Rb_tree.17" = type { %"struct.std::_Rb_tree<QString, std::pair<const QString, QLabel *>, std::_Select1st<std::pair<const QString, QLabel *>>, std::less<QString>>::_Rb_tree_impl" }
%"struct.std::_Rb_tree<QString, std::pair<const QString, QLabel *>, std::_Select1st<std::pair<const QString, QLabel *>>, std::less<QString>>::_Rb_tree_impl" = type { %"struct.std::_Rb_tree_key_compare.21", %"struct.std::_Rb_tree_header" }
%"struct.std::_Rb_tree_key_compare.21" = type { %"struct.std::less.22" }
%"struct.std::less.22" = type { i8 }
%"class.std::map.24" = type { %"class.std::_Rb_tree.25" }
%"class.std::_Rb_tree.25" = type { %"struct.std::_Rb_tree<QString, std::pair<const QString, QSlider *>, std::_Select1st<std::pair<const QString, QSlider *>>, std::less<QString>>::_Rb_tree_impl" }
%"struct.std::_Rb_tree<QString, std::pair<const QString, QSlider *>, std::_Select1st<std::pair<const QString, QSlider *>>, std::less<QString>>::_Rb_tree_impl" = type { %"struct.std::_Rb_tree_key_compare.21", %"struct.std::_Rb_tree_header" }
%"class.std::vector.29" = type { %"struct.std::_Vector_base.30" }
%"struct.std::_Vector_base.30" = type { %"struct.std::_Vector_base<QLineEdit *, std::allocator<QLineEdit *>>::_Vector_impl" }
%"struct.std::_Vector_base<QLineEdit *, std::allocator<QLineEdit *>>::_Vector_impl" = type { %"struct.std::_Vector_base<QLineEdit *, std::allocator<QLineEdit *>>::_Vector_impl_data" }
%"struct.std::_Vector_base<QLineEdit *, std::allocator<QLineEdit *>>::_Vector_impl_data" = type { ptr, ptr, ptr }
%"class.std::map.34" = type { %"class.std::_Rb_tree.35" }
%"class.std::_Rb_tree.35" = type { %"struct.std::_Rb_tree<QString, std::pair<const QString, QLineEdit *>, std::_Select1st<std::pair<const QString, QLineEdit *>>, std::less<QString>>::_Rb_tree_impl" }
%"struct.std::_Rb_tree<QString, std::pair<const QString, QLineEdit *>, std::_Select1st<std::pair<const QString, QLineEdit *>>, std::less<QString>>::_Rb_tree_impl" = type { %"struct.std::_Rb_tree_key_compare.21", %"struct.std::_Rb_tree_header" }
%"class.Ui::ShaderDialogClass" = type { %class.Ui_ShaderDialogClass }
%class.Ui_ShaderDialogClass = type { ptr, ptr, ptr, ptr, ptr, ptr, ptr, ptr, ptr, ptr, ptr, ptr, ptr, ptr, ptr, ptr, ptr }

; Function Attrs: mustprogress uwtable
define void @_ZN12ShaderDialog12setColorModeEi(ptr noundef nonnull align 8 dereferenceable(408) %0, i32 noundef %1) #5 align 2 {
  %3 = alloca ptr, align 8
  %4 = alloca i32, align 4
  store ptr %0, ptr %3, align 8
  store i32 %1, ptr %4, align 4
  %5 = load ptr, ptr %3, align 8
  %6 = load i32, ptr %4, align 4
  %7 = icmp eq i32 %6, 2
  %8 = getelementptr inbounds %class.ShaderDialog, ptr %5, i32 0, i32 2
  %9 = zext i1 %7 to i8
  store i8 %9, ptr %8, align 8
  %10 = getelementptr inbounds %class.ShaderDialog, ptr %5, i32 0, i32 1
  %11 = load ptr, ptr %10, align 8
  call void @_ZN7QWidget6updateEv(ptr noundef nonnull align 8 dereferenceable(48) %11)
  ret void
}