; Function Attrs: mustprogress uwtable
define void @_ZN12ShaderDialog12setColorModeEi(ptr nocapture noundef nonnull align 8 dereferenceable(408) %0, i32 noundef %1) local_unnamed_addr #9 align 2 {
  %3 = icmp eq i32 %1, 2
  %4 = getelementptr inbounds i8, ptr %0, i64 56
  %5 = zext i1 %3 to i8
  store i8 %5, ptr %4, align 8
  %6 = getelementptr inbounds i8, ptr %0, i64 48
  %7 = load ptr, ptr %6, align 8
  tail call void @_ZN7QWidget6updateEv(ptr noundef nonnull align 8 dereferenceable(48) %7)
  ret void
}